target datalayout = "e-m:e-p270:32:32-p271:32:32-p272:64:64-i64:64-i128:128-f80:128-n8:16:32:64-S128"
target triple = "x86_64-pc-linux-gnu"

@VP8kabs0 = external constant ptr, align 8
@VP8ksclip1 = external constant ptr, align 8
@VP8ksclip2 = external constant ptr, align 8
@VP8kclip1 = external constant ptr, align 8

; Function Attrs: inlinehint nounwind uwtable
define internal void @DoFilter2_C(ptr noundef %0, i32 noundef %1) #4 {
  %3 = alloca ptr, align 8
  %4 = alloca i32, align 4
  %5 = alloca i32, align 4
  %6 = alloca i32, align 4
  %7 = alloca i32, align 4
  %8 = alloca i32, align 4
  %9 = alloca i32, align 4
  %10 = alloca i32, align 4
  %11 = alloca i32, align 4
  store ptr %0, ptr %3, align 8, !tbaa !16
  store i32 %1, ptr %4, align 4, !tbaa !9
  call void @llvm.lifetime.start.p0(i64 4, ptr %5) #7
  %12 = load ptr, ptr %3, align 8, !tbaa !16
  %13 = load i32, ptr %4, align 4, !tbaa !9
  %14 = mul nsw i32 -2, %13
  %15 = sext i32 %14 to i64
  %16 = getelementptr inbounds i8, ptr %12, i64 %15
  %17 = load i8, ptr %16, align 1, !tbaa !18
  %18 = zext i8 %17 to i32
  store i32 %18, ptr %5, align 4, !tbaa !9
  call void @llvm.lifetime.start.p0(i64 4, ptr %6) #7
  %19 = load ptr, ptr %3, align 8, !tbaa !16
  %20 = load i32, ptr %4, align 4, !tbaa !9
  %21 = sub nsw i32 0, %20
  %22 = sext i32 %21 to i64
  %23 = getelementptr inbounds i8, ptr %19, i64 %22
  %24 = load i8, ptr %23, align 1, !tbaa !18
  %25 = zext i8 %24 to i32
  store i32 %25, ptr %6, align 4, !tbaa !9
  call void @llvm.lifetime.start.p0(i64 4, ptr %7) #7
  %26 = load ptr, ptr %3, align 8, !tbaa !16
  %27 = getelementptr inbounds i8, ptr %26, i64 0
  %28 = load i8, ptr %27, align 1, !tbaa !18
  %29 = zext i8 %28 to i32
  store i32 %29, ptr %7, align 4, !tbaa !9
  call void @llvm.lifetime.start.p0(i64 4, ptr %8) #7
  %30 = load ptr, ptr %3, align 8, !tbaa !16
  %31 = load i32, ptr %4, align 4, !tbaa !9
  %32 = sext i32 %31 to i64
  %33 = getelementptr inbounds i8, ptr %30, i64 %32
  %34 = load i8, ptr %33, align 1, !tbaa !18
  %35 = zext i8 %34 to i32
  store i32 %35, ptr %8, align 4, !tbaa !9
  call void @llvm.lifetime.start.p0(i64 4, ptr %9) #7
  %36 = load i32, ptr %7, align 4, !tbaa !9
  %37 = load i32, ptr %6, align 4, !tbaa !9
  %38 = sub nsw i32 %36, %37
  %39 = mul nsw i32 3, %38
  %40 = load ptr, ptr @VP8ksclip1, align 8, !tbaa !16
  %41 = load i32, ptr %5, align 4, !tbaa !9
  %42 = load i32, ptr %8, align 4, !tbaa !9
  %43 = sub nsw i32 %41, %42
  %44 = sext i32 %43 to i64
  %45 = getelementptr inbounds i8, ptr %40, i64 %44
  %46 = load i8, ptr %45, align 1, !tbaa !18
  %47 = sext i8 %46 to i32
  %48 = add nsw i32 %39, %47
  store i32 %48, ptr %9, align 4, !tbaa !9
  call void @llvm.lifetime.start.p0(i64 4, ptr %10) #7
  %49 = load ptr, ptr @VP8ksclip2, align 8, !tbaa !16
  %50 = load i32, ptr %9, align 4, !tbaa !9
  %51 = add nsw i32 %50, 4
  %52 = ashr i32 %51, 3
  %53 = sext i32 %52 to i64
  %54 = getelementptr inbounds i8, ptr %49, i64 %53
  %55 = load i8, ptr %54, align 1, !tbaa !18
  %56 = sext i8 %55 to i32
  store i32 %56, ptr %10, align 4, !tbaa !9
  call void @llvm.lifetime.start.p0(i64 4, ptr %11) #7
  %57 = load ptr, ptr @VP8ksclip2, align 8, !tbaa !16
  %58 = load i32, ptr %9, align 4, !tbaa !9
  %59 = add nsw i32 %58, 3
  %60 = ashr i32 %59, 3
  %61 = sext i32 %60 to i64
  %62 = getelementptr inbounds i8, ptr %57, i64 %61
  %63 = load i8, ptr %62, align 1, !tbaa !18
  %64 = sext i8 %63 to i32
  store i32 %64, ptr %11, align 4, !tbaa !9
  %65 = load ptr, ptr @VP8kclip1, align 8, !tbaa !16
  %66 = load i32, ptr %6, align 4, !tbaa !9
  %67 = load i32, ptr %11, align 4, !tbaa !9
  %68 = add nsw i32 %66, %67
  %69 = sext i32 %68 to i64
  %70 = getelementptr inbounds i8, ptr %65, i64 %69
  %71 = load i8, ptr %70, align 1, !tbaa !18
  %72 = load ptr, ptr %3, align 8, !tbaa !16
  %73 = load i32, ptr %4, align 4, !tbaa !9
  %74 = sub nsw i32 0, %73
  %75 = sext i32 %74 to i64
  %76 = getelementptr inbounds i8, ptr %72, i64 %75
  store i8 %71, ptr %76, align 1, !tbaa !18
  %77 = load ptr, ptr @VP8kclip1, align 8, !tbaa !16
  %78 = load i32, ptr %7, align 4, !tbaa !9
  %79 = load i32, ptr %10, align 4, !tbaa !9
  %80 = sub nsw i32 %78, %79
  %81 = sext i32 %80 to i64
  %82 = getelementptr inbounds i8, ptr %77, i64 %81
  %83 = load i8, ptr %82, align 1, !tbaa !18
  %84 = load ptr, ptr %3, align 8, !tbaa !16
  %85 = getelementptr inbounds i8, ptr %84, i64 0
  store i8 %83, ptr %85, align 1, !tbaa !18
  call void @llvm.lifetime.end.p0(i64 4, ptr %11) #7
  call void @llvm.lifetime.end.p0(i64 4, ptr %10) #7
  call void @llvm.lifetime.end.p0(i64 4, ptr %9) #7
  call void @llvm.lifetime.end.p0(i64 4, ptr %8) #7
  call void @llvm.lifetime.end.p0(i64 4, ptr %7) #7
  call void @llvm.lifetime.end.p0(i64 4, ptr %6) #7
  call void @llvm.lifetime.end.p0(i64 4, ptr %5) #7
  ret void
}

; Function Attrs: inlinehint nounwind uwtable
define internal i32 @NeedsFilter_C(ptr noundef %0, i32 noundef %1, i32 noundef %2) #4 {
  %4 = alloca ptr, align 8
  %5 = alloca i32, align 4
  %6 = alloca i32, align 4
  %7 = alloca i32, align 4
  %8 = alloca i32, align 4
  %9 = alloca i32, align 4
  %10 = alloca i32, align 4
  store ptr %0, ptr %4, align 8, !tbaa !16
  store i32 %1, ptr %5, align 4, !tbaa !9
  store i32 %2, ptr %6, align 4, !tbaa !9
  call void @llvm.lifetime.start.p0(i64 4, ptr %7) #7
  %11 = load ptr, ptr %4, align 8, !tbaa !16
  %12 = load i32, ptr %5, align 4, !tbaa !9
  %13 = mul nsw i32 -2, %12
  %14 = sext i32 %13 to i64
  %15 = getelementptr inbounds i8, ptr %11, i64 %14
  %16 = load i8, ptr %15, align 1, !tbaa !18
  %17 = zext i8 %16 to i32
  store i32 %17, ptr %7, align 4, !tbaa !9
  call void @llvm.lifetime.start.p0(i64 4, ptr %8) #7
  %18 = load ptr, ptr %4, align 8, !tbaa !16
  %19 = load i32, ptr %5, align 4, !tbaa !9
  %20 = sub nsw i32 0, %19
  %21 = sext i32 %20 to i64
  %22 = getelementptr inbounds i8, ptr %18, i64 %21
  %23 = load i8, ptr %22, align 1, !tbaa !18
  %24 = zext i8 %23 to i32
  store i32 %24, ptr %8, align 4, !tbaa !9
  call void @llvm.lifetime.start.p0(i64 4, ptr %9) #7
  %25 = load ptr, ptr %4, align 8, !tbaa !16
  %26 = getelementptr inbounds i8, ptr %25, i64 0
  %27 = load i8, ptr %26, align 1, !tbaa !18
  %28 = zext i8 %27 to i32
  store i32 %28, ptr %9, align 4, !tbaa !9
  call void @llvm.lifetime.start.p0(i64 4, ptr %10) #7
  %29 = load ptr, ptr %4, align 8, !tbaa !16
  %30 = load i32, ptr %5, align 4, !tbaa !9
  %31 = sext i32 %30 to i64
  %32 = getelementptr inbounds i8, ptr %29, i64 %31
  %33 = load i8, ptr %32, align 1, !tbaa !18
  %34 = zext i8 %33 to i32
  store i32 %34, ptr %10, align 4, !tbaa !9
  %35 = load ptr, ptr @VP8kabs0, align 8, !tbaa !16
  %36 = load i32, ptr %8, align 4, !tbaa !9
  %37 = load i32, ptr %9, align 4, !tbaa !9
  %38 = sub nsw i32 %36, %37
  %39 = sext i32 %38 to i64
  %40 = getelementptr inbounds i8, ptr %35, i64 %39
  %41 = load i8, ptr %40, align 1, !tbaa !18
  %42 = zext i8 %41 to i32
  %43 = mul nsw i32 4, %42
  %44 = load ptr, ptr @VP8kabs0, align 8, !tbaa !16
  %45 = load i32, ptr %7, align 4, !tbaa !9
  %46 = load i32, ptr %10, align 4, !tbaa !9
  %47 = sub nsw i32 %45, %46
  %48 = sext i32 %47 to i64
  %49 = getelementptr inbounds i8, ptr %44, i64 %48
  %50 = load i8, ptr %49, align 1, !tbaa !18
  %51 = zext i8 %50 to i32
  %52 = add nsw i32 %43, %51
  %53 = load i32, ptr %6, align 4, !tbaa !9
  %54 = icmp sle i32 %52, %53
  %55 = zext i1 %54 to i32
  call void @llvm.lifetime.end.p0(i64 4, ptr %10) #7
  call void @llvm.lifetime.end.p0(i64 4, ptr %9) #7
  call void @llvm.lifetime.end.p0(i64 4, ptr %8) #7
  call void @llvm.lifetime.end.p0(i64 4, ptr %7) #7
  ret i32 %55
}

; Function Attrs: nounwind uwtable
define internal void @SimpleHFilter16_C(ptr noundef %0, i32 noundef %1, i32 noundef %2) #0 {
  %4 = alloca ptr, align 8
  %5 = alloca i32, align 4
  %6 = alloca i32, align 4
  %7 = alloca i32, align 4
  %8 = alloca i32, align 4
  store ptr %0, ptr %4, align 8, !tbaa !16
  store i32 %1, ptr %5, align 4, !tbaa !9
  store i32 %2, ptr %6, align 4, !tbaa !9
  call void @llvm.lifetime.start.p0(i64 4, ptr %7) #7
  call void @llvm.lifetime.start.p0(i64 4, ptr %8) #7
  %9 = load i32, ptr %6, align 4, !tbaa !9
  %10 = mul nsw i32 2, %9
  %11 = add nsw i32 %10, 1
  store i32 %11, ptr %8, align 4, !tbaa !9
  store i32 0, ptr %7, align 4, !tbaa !9
  br label %12

12:                                               ; preds = %33, %3
  %13 = load i32, ptr %7, align 4, !tbaa !9
  %14 = icmp slt i32 %13, 16
  br i1 %14, label %15, label %36

15:                                               ; preds = %12
  %16 = load ptr, ptr %4, align 8, !tbaa !16
  %17 = load i32, ptr %7, align 4, !tbaa !9
  %18 = load i32, ptr %5, align 4, !tbaa !9
  %19 = mul nsw i32 %17, %18
  %20 = sext i32 %19 to i64
  %21 = getelementptr inbounds i8, ptr %16, i64 %20
  %22 = load i32, ptr %8, align 4, !tbaa !9
  %23 = call i32 @NeedsFilter_C(ptr noundef %21, i32 noundef 1, i32 noundef %22)
  %24 = icmp ne i32 %23, 0
  br i1 %24, label %25, label %32

25:                                               ; preds = %15
  %26 = load ptr, ptr %4, align 8, !tbaa !16
  %27 = load i32, ptr %7, align 4, !tbaa !9
  %28 = load i32, ptr %5, align 4, !tbaa !9
  %29 = mul nsw i32 %27, %28
  %30 = sext i32 %29 to i64
  %31 = getelementptr inbounds i8, ptr %26, i64 %30
  call void @DoFilter2_C(ptr noundef %31, i32 noundef 1)
  br label %32

32:                                               ; preds = %25, %15
  br label %33

33:                                               ; preds = %32
  %34 = load i32, ptr %7, align 4, !tbaa !9
  %35 = add nsw i32 %34, 1
  store i32 %35, ptr %7, align 4, !tbaa !9
  br label %12, !llvm.loop !23

36:                                               ; preds = %12
  call void @llvm.lifetime.end.p0(i64 4, ptr %8) #7
  call void @llvm.lifetime.end.p0(i64 4, ptr %7) #7
  ret void
}