; Function Attrs: nofree norecurse nosync nounwind memory(read, argmem: readwrite, inaccessiblemem: none) uwtable
define internal void @SimpleHFilter16_C(ptr noundef captures(none) %0, i32 noundef %1, i32 noundef %2) #5 {
  %4 = shl nsw i32 %2, 1
  %5 = or disjoint i32 %4, 1
  %6 = load ptr, ptr @VP8kabs0, align 8, !tbaa !18
  %7 = load ptr, ptr @VP8ksclip1, align 8
  %8 = load ptr, ptr @VP8ksclip2, align 8
  %9 = load ptr, ptr @VP8kclip1, align 8
  %10 = sext i32 %1 to i64
  br label %11

11:                                               ; preds = %3, %64
  %indvars.iv = phi i64 [ 0, %3 ], [ %indvars.iv.next, %64 ]
  %12 = mul nsw i64 %indvars.iv, %10
  %13 = getelementptr inbounds i8, ptr %0, i64 %12
  %14 = getelementptr inbounds i8, ptr %13, i64 -2
  %15 = load i8, ptr %14, align 1, !tbaa !14
  %16 = zext i8 %15 to i64
  %17 = getelementptr inbounds i8, ptr %13, i64 -1
  %18 = load i8, ptr %17, align 1, !tbaa !14
  %19 = zext i8 %18 to i64
  %20 = load i8, ptr %13, align 1, !tbaa !14
  %21 = zext i8 %20 to i64
  %22 = getelementptr inbounds nuw i8, ptr %13, i64 1
  %23 = load i8, ptr %22, align 1, !tbaa !14
  %24 = zext i8 %23 to i64
  %25 = sub nsw i64 %19, %21
  %26 = getelementptr inbounds i8, ptr %6, i64 %25
  %27 = load i8, ptr %26, align 1, !tbaa !14
  %28 = zext i8 %27 to i32
  %29 = shl nuw nsw i32 %28, 2
  %30 = sub nsw i64 %16, %24
  %31 = getelementptr inbounds i8, ptr %6, i64 %30
  %32 = load i8, ptr %31, align 1, !tbaa !14
  %33 = zext i8 %32 to i32
  %34 = add nuw nsw i32 %29, %33
  %.not9 = icmp sgt i32 %34, %5
  br i1 %.not9, label %64, label %35

35:                                               ; preds = %11
  %36 = zext i8 %18 to i32
  %37 = zext i8 %20 to i32
  %38 = sub nsw i32 %37, %36
  %39 = mul nsw i32 %38, 3
  %40 = getelementptr inbounds i8, ptr %7, i64 %30
  %41 = load i8, ptr %40, align 1, !tbaa !14
  %42 = sext i8 %41 to i32
  %43 = add nsw i32 %39, %42
  %44 = add nsw i32 %43, 4
  %45 = ashr i32 %44, 3
  %46 = sext i32 %45 to i64
  %47 = getelementptr inbounds i8, ptr %8, i64 %46
  %48 = load i8, ptr %47, align 1, !tbaa !14
  %49 = sext i8 %48 to i32
  %50 = add nsw i32 %43, 3
  %51 = ashr i32 %50, 3
  %52 = sext i32 %51 to i64
  %53 = getelementptr inbounds i8, ptr %8, i64 %52
  %54 = load i8, ptr %53, align 1, !tbaa !14
  %55 = sext i8 %54 to i32
  %56 = add nsw i32 %55, %36
  %57 = sext i32 %56 to i64
  %58 = getelementptr inbounds i8, ptr %9, i64 %57
  %59 = load i8, ptr %58, align 1, !tbaa !14
  store i8 %59, ptr %17, align 1, !tbaa !14
  %60 = sub nsw i32 %37, %49
  %61 = sext i32 %60 to i64
  %62 = getelementptr inbounds i8, ptr %9, i64 %61
  %63 = load i8, ptr %62, align 1, !tbaa !14
  store i8 %63, ptr %13, align 1, !tbaa !14
  br label %64

64:                                               ; preds = %11, %35
  %indvars.iv.next = add nuw nsw i64 %indvars.iv, 1
  %exitcond.not = icmp eq i64 %indvars.iv.next, 16
  br i1 %exitcond.not, label %65, label %11, !llvm.loop !21

65:                                               ; preds = %64
  ret void
}